; Function Attrs: mustprogress nofree norecurse nosync nounwind willreturn memory(argmem: read) uwtable
define noundef zeroext i1 @_ZN19OpenColorIO_v2_5devneERKNS_19GradingControlPointES2_(ptr noundef nonnull readonly align 4 captures(none) dereferenceable(8) %0, ptr noundef nonnull readonly align 4 captures(none) dereferenceable(8) %1) local_unnamed_addr #4 {
  %3 = load float, ptr %0, align 4, !tbaa !63
  %4 = load float, ptr %1, align 4, !tbaa !63
  %5 = fcmp une float %3, %4
  %6 = getelementptr inbounds nuw i8, ptr %0, i64 4
  %7 = load float, ptr %6, align 4
  %8 = getelementptr inbounds nuw i8, ptr %1, i64 4
  %9 = load float, ptr %8, align 4
  %10 = fcmp une float %7, %9
  %.not3 = select i1 %5, i1 true, i1 %10
  ret i1 %.not3
}